target datalayout = "e-m:e-p270:32:32-p271:32:32-p272:64:64-i64:64-i128:128-f80:128-n8:16:32:64-S128"
target triple = "x86_64-pc-linux-gnu"

%struct._zval_struct = type { %union._zend_value, %union.anon, %union.anon.2 }
%union._zend_value = type { i64 }
%union.anon = type { i32 }
%union.anon.2 = type { i32 }
%struct._php_stream_notifier = type { ptr, ptr, %struct._zval_struct, i32, i64, i64 }

; Function Attrs: nounwind uwtable
define internal void @user_space_stream_notifier_dtor(ptr noundef %0) #0 {
  %2 = alloca ptr, align 8
  %3 = alloca ptr, align 8
  store ptr %0, ptr %3, align 8
  %4 = load ptr, ptr %3, align 8
  %5 = icmp ne ptr %4, null
  br i1 %5, label %6, label %22

6:                                                ; preds = %1
  %7 = load ptr, ptr %3, align 8
  %8 = getelementptr inbounds %struct._php_stream_notifier, ptr %7, i32 0, i32 2
  store ptr %8, ptr %2, align 8
  %9 = load ptr, ptr %2, align 8
  %10 = getelementptr inbounds %struct._zval_struct, ptr %9, i32 0, i32 1
  %11 = load i8, ptr %10, align 8
  %12 = zext i8 %11 to i32
  %13 = icmp ne i32 %12, 0
  br i1 %13, label %14, label %22

14:                                               ; preds = %6
  %15 = load ptr, ptr %3, align 8
  %16 = getelementptr inbounds %struct._php_stream_notifier, ptr %15, i32 0, i32 2
  call void @zval_ptr_dtor(ptr noundef %16)
  br label %17

17:                                               ; preds = %14
  %18 = load ptr, ptr %3, align 8
  %19 = getelementptr inbounds %struct._php_stream_notifier, ptr %18, i32 0, i32 2
  %20 = getelementptr inbounds %struct._zval_struct, ptr %19, i32 0, i32 1
  store i32 0, ptr %20, align 8
  br label %21

21:                                               ; preds = %17
  br label %22

22:                                               ; preds = %21, %6, %1
  ret void
}