; Function Attrs: nounwind uwtable
define internal void @user_space_stream_notifier_dtor(ptr noundef %0) #0 {
  %.not = icmp eq ptr %0, null
  br i1 %.not, label %7, label %2

2:                                                ; preds = %1
  %3 = getelementptr inbounds i8, ptr %0, i64 24
  %4 = load i8, ptr %3, align 8
  %.not5 = icmp eq i8 %4, 0
  br i1 %.not5, label %7, label %5

5:                                                ; preds = %2
  %6 = getelementptr inbounds i8, ptr %0, i64 16
  tail call void @zval_ptr_dtor(ptr noundef nonnull %6) #10
  store i32 0, ptr %3, align 8
  br label %7

7:                                                ; preds = %5, %2, %1
  ret void
}